target datalayout = "e-m:e-p270:32:32-p271:32:32-p272:64:64-i64:64-i128:128-f80:128-n8:16:32:64-S128"
target triple = "x86_64-pc-linux-gnu"

@.str.6 = private unnamed_addr constant [19 x i8] c"IAMF Audio Element\00", align 1
@.str.7 = private unnamed_addr constant [22 x i8] c"IAMF Mix Presentation\00", align 1
@.str.8 = private unnamed_addr constant [10 x i8] c"Tile Grid\00", align 1
@.str.9 = private unnamed_addr constant [36 x i8] c"LCEVC (Split video and enhancement)\00", align 1

; Function Attrs: nounwind uwtable
define ptr @avformat_stream_group_name(i32 noundef %0) #0 {
  %2 = alloca ptr, align 8
  %3 = alloca i32, align 4
  store i32 %0, ptr %3, align 4, !tbaa !74
  %4 = load i32, ptr %3, align 4, !tbaa !74
  switch i32 %4, label %9 [
    i32 1, label %5
    i32 2, label %6
    i32 3, label %7
    i32 4, label %8
  ]

5:                                                ; preds = %1
  store ptr @.str.6, ptr %2, align 8
  br label %10

6:                                                ; preds = %1
  store ptr @.str.7, ptr %2, align 8
  br label %10

7:                                                ; preds = %1
  store ptr @.str.8, ptr %2, align 8
  br label %10

8:                                                ; preds = %1
  store ptr @.str.9, ptr %2, align 8
  br label %10

9:                                                ; preds = %1
  store ptr null, ptr %2, align 8
  br label %10

10:                                               ; preds = %9, %8, %7, %6, %5
  %11 = load ptr, ptr %2, align 8
  ret ptr %11
}